; Function Attrs: nounwind uwtable
define ptr @l_Lean_Language_Lean_instToSnapshotTreeCommandParsedSnapshot_go___lambda__1___boxed(ptr noundef %0) #0 {
  %2 = getelementptr inbounds nuw i8, ptr %0, i64 16
  %3 = load ptr, ptr %2, align 8, !tbaa !4
  %4 = getelementptr inbounds nuw i8, ptr %3, i64 8
  %5 = load atomic ptr, ptr %4 seq_cst, align 8, !tbaa !14
  %.not.i.i.i = icmp eq ptr %5, null
  br i1 %.not.i.i.i, label %6, label %lean_thunk_get.exit.i.i

6:                                                ; preds = %1
  %7 = tail call ptr @lean_thunk_get_core(ptr noundef nonnull %3) #3
  br label %lean_thunk_get.exit.i.i

lean_thunk_get.exit.i.i:                          ; preds = %6, %1
  %.0.i.i.i = phi ptr [ %7, %6 ], [ %5, %1 ]
  %8 = ptrtoint ptr %.0.i.i.i to i64
  %9 = and i64 %8, 1
  %.not.i.i = icmp eq i64 %9, 0
  br i1 %.not.i.i, label %10, label %l_Lean_Language_Lean_instToSnapshotTreeCommandParsedSnapshot_go___lambda__1.exit

10:                                               ; preds = %lean_thunk_get.exit.i.i
  %.val.i.i.i = load i32, ptr %.0.i.i.i, align 4, !tbaa !8
  %11 = icmp sgt i32 %.val.i.i.i, 0
  br i1 %11, label %12, label %14, !prof !11

12:                                               ; preds = %10
  %13 = add nuw i32 %.val.i.i.i, 1
  store i32 %13, ptr %.0.i.i.i, align 4, !tbaa !8
  br label %l_Lean_Language_Lean_instToSnapshotTreeCommandParsedSnapshot_go___lambda__1.exit

14:                                               ; preds = %10
  %.not.i3.i.i = icmp eq i32 %.val.i.i.i, 0
  br i1 %.not.i3.i.i, label %l_Lean_Language_Lean_instToSnapshotTreeCommandParsedSnapshot_go___lambda__1.exit, label %15

15:                                               ; preds = %14
  tail call void @lean_inc_ref_cold(ptr noundef nonnull %.0.i.i.i) #3
  br label %l_Lean_Language_Lean_instToSnapshotTreeCommandParsedSnapshot_go___lambda__1.exit

l_Lean_Language_Lean_instToSnapshotTreeCommandParsedSnapshot_go___lambda__1.exit: ; preds = %lean_thunk_get.exit.i.i, %12, %14, %15
  %16 = ptrtoint ptr %0 to i64
  %17 = and i64 %16, 1
  %.not = icmp eq i64 %17, 0
  br i1 %.not, label %18, label %lean_dec.exit

18:                                               ; preds = %l_Lean_Language_Lean_instToSnapshotTreeCommandParsedSnapshot_go___lambda__1.exit
  %19 = load i32, ptr %0, align 4, !tbaa !8
  %20 = icmp sgt i32 %19, 1
  br i1 %20, label %21, label %23, !prof !11

21:                                               ; preds = %18
  %22 = add nsw i32 %19, -1
  store i32 %22, ptr %0, align 4, !tbaa !8
  br label %lean_dec.exit

23:                                               ; preds = %18
  %.not.i = icmp eq i32 %19, 0
  br i1 %.not.i, label %lean_dec.exit, label %24

24:                                               ; preds = %23
  tail call void @lean_dec_ref_cold(ptr noundef nonnull %0) #3
  br label %lean_dec.exit

lean_dec.exit:                                    ; preds = %24, %23, %21, %l_Lean_Language_Lean_instToSnapshotTreeCommandParsedSnapshot_go___lambda__1.exit
  ret ptr %.0.i.i.i
}